; ModuleID = 'bench/llvm/original/Scalar.cpp.ll'
source_filename = "bench/llvm/original/Scalar.cpp.ll"
target datalayout = "e-m:e-p270:32:32-p271:32:32-p272:64:64-i64:64-i128:128-f80:128-n8:16:32:64-S128"
target triple = "x86_64-pc-linux-gnu"

; Function Attrs: mustprogress nounwind uwtable
define dso_local void @_ZN4llvm20initializeScalarOptsERNS_12PassRegistryE(ptr noundef nonnull align 1 %0) local_unnamed_addr #0 {
  tail call void @_ZN4llvm40initializeConstantHoistingLegacyPassPassERNS_12PassRegistryE(ptr noundef nonnull align 1 %0) #2
  tail call void @_ZN4llvm27initializeDCELegacyPassPassERNS_12PassRegistryE(ptr noundef nonnull align 1 %0) #2
  tail call void @_ZN4llvm27initializeGVNLegacyPassPassERNS_12PassRegistryE(ptr noundef nonnull align 1 %0) #2
  tail call void @_ZN4llvm32initializeEarlyCSELegacyPassPassERNS_12PassRegistryE(ptr noundef nonnull align 1 %0) #2
  tail call void @_ZN4llvm38initializeEarlyCSEMemSSALegacyPassPassERNS_12PassRegistryE(ptr noundef nonnull align 1 %0) #2
  tail call void @_ZN4llvm34initializeFlattenCFGLegacyPassPassERNS_12PassRegistryE(ptr noundef nonnull align 1 %0) #2
  tail call void @_ZN4llvm32initializeInferAddressSpacesPassERNS_12PassRegistryE(ptr noundef nonnull align 1 %0) #2
  tail call void @_ZN4llvm36initializeInstSimplifyLegacyPassPassERNS_12PassRegistryE(ptr noundef nonnull align 1 %0) #2
  tail call void @_ZN4llvm28initializeLegacyLICMPassPassERNS_12PassRegistryE(ptr noundef nonnull align 1 %0) #2
  tail call void @_ZN4llvm40initializeLoopDataPrefetchLegacyPassPassERNS_12PassRegistryE(ptr noundef nonnull align 1 %0) #2
  tail call void @_ZN4llvm32initializeLoopStrengthReducePassERNS_12PassRegistryE(ptr noundef nonnull align 1 %0) #2
  tail call void @_ZN4llvm26initializeLoopTermFoldPassERNS_12PassRegistryE(ptr noundef nonnull align 1 %0) #2
  tail call void @_ZN4llvm24initializeLoopUnrollPassERNS_12PassRegistryE(ptr noundef nonnull align 1 %0) #2
  tail call void @_ZN4llvm35initializeLowerAtomicLegacyPassPassERNS_12PassRegistryE(ptr noundef nonnull align 1 %0) #2
  tail call void @_ZN4llvm34initializeMergeICmpsLegacyPassPassERNS_12PassRegistryE(ptr noundef nonnull align 1 %0) #2
  tail call void @_ZN4llvm39initializeNaryReassociateLegacyPassPassERNS_12PassRegistryE(ptr noundef nonnull align 1 %0) #2
  tail call void @_ZN4llvm47initializePartiallyInlineLibCallsLegacyPassPassERNS_12PassRegistryE(ptr noundef nonnull align 1 %0) #2
  tail call void @_ZN4llvm35initializeReassociateLegacyPassPassERNS_12PassRegistryE(ptr noundef nonnull align 1 %0) #2
  tail call void @_ZN4llvm48initializeScalarizeMaskedMemIntrinLegacyPassPassERNS_12PassRegistryE(ptr noundef nonnull align 1 %0) #2
  tail call void @_ZN4llvm28initializeSROALegacyPassPassERNS_12PassRegistryE(ptr noundef nonnull align 1 %0) #2
  tail call void @_ZN4llvm29initializeCFGSimplifyPassPassERNS_12PassRegistryE(ptr noundef nonnull align 1 %0) #2
  tail call void @_ZN4llvm38initializeStructurizeCFGLegacyPassPassERNS_12PassRegistryE(ptr noundef nonnull align 1 %0) #2
  tail call void @_ZN4llvm31initializeSinkingLegacyPassPassERNS_12PassRegistryE(ptr noundef nonnull align 1 %0) #2
  tail call void @_ZN4llvm26initializeTailCallElimPassERNS_12PassRegistryE(ptr noundef nonnull align 1 %0) #2
  tail call void @_ZN4llvm40initializeTLSVariableHoistLegacyPassPassERNS_12PassRegistryE(ptr noundef nonnull align 1 %0) #2
  tail call void @_ZN4llvm50initializeSeparateConstOffsetFromGEPLegacyPassPassERNS_12PassRegistryE(ptr noundef nonnull align 1 %0) #2
  tail call void @_ZN4llvm44initializeSpeculativeExecutionLegacyPassPassERNS_12PassRegistryE(ptr noundef nonnull align 1 %0) #2
  tail call void @_ZN4llvm50initializeStraightLineStrengthReduceLegacyPassPassERNS_12PassRegistryE(ptr noundef nonnull align 1 %0) #2
  tail call void @_ZN4llvm47initializePlaceBackedgeSafepointsLegacyPassPassERNS_12PassRegistryE(ptr noundef nonnull align 1 %0) #2
  tail call void @_ZN4llvm45initializePostInlineEntryExitInstrumenterPassERNS_12PassRegistryE(ptr noundef nonnull align 1 %0) #2
  ret void
}

declare void @_ZN4llvm40initializeConstantHoistingLegacyPassPassERNS_12PassRegistryE(ptr noundef nonnull align 1) local_unnamed_addr #1

declare void @_ZN4llvm27initializeDCELegacyPassPassERNS_12PassRegistryE(ptr noundef nonnull align 1) local_unnamed_addr #1

declare void @_ZN4llvm27initializeGVNLegacyPassPassERNS_12PassRegistryE(ptr noundef nonnull align 1) local_unnamed_addr #1

declare void @_ZN4llvm32initializeEarlyCSELegacyPassPassERNS_12PassRegistryE(ptr noundef nonnull align 1) local_unnamed_addr #1

declare void @_ZN4llvm38initializeEarlyCSEMemSSALegacyPassPassERNS_12PassRegistryE(ptr noundef nonnull align 1) local_unnamed_addr #1

declare void @_ZN4llvm34initializeFlattenCFGLegacyPassPassERNS_12PassRegistryE(ptr noundef nonnull align 1) local_unnamed_addr #1

declare void @_ZN4llvm32initializeInferAddressSpacesPassERNS_12PassRegistryE(ptr noundef nonnull align 1) local_unnamed_addr #1

declare void @_ZN4llvm36initializeInstSimplifyLegacyPassPassERNS_12PassRegistryE(ptr noundef nonnull align 1) local_unnamed_addr #1

declare void @_ZN4llvm28initializeLegacyLICMPassPassERNS_12PassRegistryE(ptr noundef nonnull align 1) local_unnamed_addr #1

declare void @_ZN4llvm40initializeLoopDataPrefetchLegacyPassPassERNS_12PassRegistryE(ptr noundef nonnull align 1) local_unnamed_addr #1

declare void @_ZN4llvm32initializeLoopStrengthReducePassERNS_12PassRegistryE(ptr noundef nonnull align 1) local_unnamed_addr #1

declare void @_ZN4llvm26initializeLoopTermFoldPassERNS_12PassRegistryE(ptr noundef nonnull align 1) local_unnamed_addr #1

declare void @_ZN4llvm24initializeLoopUnrollPassERNS_12PassRegistryE(ptr noundef nonnull align 1) local_unnamed_addr #1

declare void @_ZN4llvm35initializeLowerAtomicLegacyPassPassERNS_12PassRegistryE(ptr noundef nonnull align 1) local_unnamed_addr #1

declare void @_ZN4llvm34initializeMergeICmpsLegacyPassPassERNS_12PassRegistryE(ptr noundef nonnull align 1) local_unnamed_addr #1

declare void @_ZN4llvm39initializeNaryReassociateLegacyPassPassERNS_12PassRegistryE(ptr noundef nonnull align 1) local_unnamed_addr #1

declare void @_ZN4llvm47initializePartiallyInlineLibCallsLegacyPassPassERNS_12PassRegistryE(ptr noundef nonnull align 1) local_unnamed_addr #1

declare void @_ZN4llvm35initializeReassociateLegacyPassPassERNS_12PassRegistryE(ptr noundef nonnull align 1) local_unnamed_addr #1

declare void @_ZN4llvm48initializeScalarizeMaskedMemIntrinLegacyPassPassERNS_12PassRegistryE(ptr noundef nonnull align 1) local_unnamed_addr #1

declare void @_ZN4llvm28initializeSROALegacyPassPassERNS_12PassRegistryE(ptr noundef nonnull align 1) local_unnamed_addr #1

declare void @_ZN4llvm29initializeCFGSimplifyPassPassERNS_12PassRegistryE(ptr noundef nonnull align 1) local_unnamed_addr #1

declare void @_ZN4llvm38initializeStructurizeCFGLegacyPassPassERNS_12PassRegistryE(ptr noundef nonnull align 1) local_unnamed_addr #1

declare void @_ZN4llvm31initializeSinkingLegacyPassPassERNS_12PassRegistryE(ptr noundef nonnull align 1) local_unnamed_addr #1

declare void @_ZN4llvm26initializeTailCallElimPassERNS_12PassRegistryE(ptr noundef nonnull align 1) local_unnamed_addr #1

declare void @_ZN4llvm40initializeTLSVariableHoistLegacyPassPassERNS_12PassRegistryE(ptr noundef nonnull align 1) local_unnamed_addr #1

declare void @_ZN4llvm50initializeSeparateConstOffsetFromGEPLegacyPassPassERNS_12PassRegistryE(ptr noundef nonnull align 1) local_unnamed_addr #1

declare void @_ZN4llvm44initializeSpeculativeExecutionLegacyPassPassERNS_12PassRegistryE(ptr noundef nonnull align 1) local_unnamed_addr #1

declare void @_ZN4llvm50initializeStraightLineStrengthReduceLegacyPassPassERNS_12PassRegistryE(ptr noundef nonnull align 1) local_unnamed_addr #1

declare void @_ZN4llvm47initializePlaceBackedgeSafepointsLegacyPassPassERNS_12PassRegistryE(ptr noundef nonnull align 1) local_unnamed_addr #1

declare void @_ZN4llvm45initializePostInlineEntryExitInstrumenterPassERNS_12PassRegistryE(ptr noundef nonnull align 1) local_unnamed_addr #1


!llvm.module.flags = !{!0, !1, !2, !3}

!0 = !{i32 1, !"wchar_size", i32 4}
!1 = !{i32 8, !"PIC Level", i32 2}
!2 = !{i32 7, !"uwtable", i32 2}
!3 = !{i32 7, !"frame-pointer", i32 2}
